(ideluge.core.torrentmanager
TorrentManagerState
p1
(dp2
S'torrents'
p3
(lp4
(ideluge.core.torrentmanager
TorrentState
p5
(dp6
S'max_download_speed'
p7
F-1
sS'move_completed_path'
p8
S'/Users/bodo/Downloads'
p9
sS'paused'
p10
I00
sS'max_upload_slots'
p11
I-1
sS'prioritize_first_last'
p12
I00
sS'max_connections'
p13
I-1
sS'compact'
p14
I00
sS'queue'
p15
I-1
sS'file_priorities'
p16
(lp17
I0
aI0
aI0
aI0
aI7
aI5
aI1
aI1
aI1
aI1
aI1
aI1
aI1
aI1
asS'filename'
p18
S'63ae7cb19ae1b04c903edc35e41bfe9f64c00991'
p19
sS'max_upload_speed'
p20
F-1
sS'save_path'
p21
S'/Users/bodo/Downloads'
p22
sS'time_added'
p23
F1672378519.6463411
sS'total_uploaded'
p24
L87693036L
sS'torrent_id'
p25
g19
sS'auto_managed'
p26
I01
sS'stop_at_ratio'
p27
I00
sS'move_completed'
p28
I00
sS'trackers'
p29
(lp30
(dp31
S'send_stats'
p32
I01
sS'fails'
p33
I0
sS'verified'
p34
I00
sS'min_announce'
p35
NsS'url'
p36
S'udp://tracker.coppersurfer.tk:6969/announce'
p37
sS'fail_limit'
p38
I0
sS'next_announce'
p39
NsS'complete_sent'
p40
I00
sS'source'
p41
I4
sS'start_sent'
p42
I00
sS'tier'
p43
I0
sS'updating'
p44
I00
sa(dp45
S'send_stats'
p46
I01
sS'fails'
p47
I0
sS'verified'
p48
I00
sg35
NsS'url'
p49
S'udp://tracker.zer0day.to:1337/announce'
p50
sS'fail_limit'
p51
I0
sg39
NsS'complete_sent'
p52
I00
sS'source'
p53
I4
sS'start_sent'
p54
I00
sS'tier'
p55
I0
sS'updating'
p56
I00
sa(dp57
S'send_stats'
p58
I01
sS'fails'
p59
I0
sS'verified'
p60
I00
sg35
NsS'url'
p61
S'udp://tracker.opentrackr.org:1337/announce'
p62
sS'fail_limit'
p63
I0
sg39
NsS'complete_sent'
p64
I00
sS'source'
p65
I4
sS'start_sent'
p66
I00
sS'tier'
p67
I0
sS'updating'
p68
I00
sa(dp69
S'send_stats'
p70
I01
sS'fails'
p71
I0
sS'verified'
p72
I00
sg35
NsS'url'
p73
S'udp://tracker.torrent.eu.org:451/announce'
p74
sS'fail_limit'
p75
I0
sg39
NsS'complete_sent'
p76
I00
sS'source'
p77
I4
sS'start_sent'
p78
I00
sS'tier'
p79
I0
sS'updating'
p80
I00
sa(dp81
S'send_stats'
p82
I01
sS'fails'
p83
I0
sS'verified'
p84
I00
sg35
NsS'url'
p85
S'udp://tracker.leechers-paradise.org:6969/announce'
p86
sS'fail_limit'
p87
I0
sg39
NsS'complete_sent'
p88
I00
sS'source'
p89
I4
sS'start_sent'
p90
I00
sS'tier'
p91
I0
sS'updating'
p92
I00
sa(dp93
S'send_stats'
p94
I01
sS'fails'
p95
I0
sS'verified'
p96
I00
sg35
NsS'url'
p97
S'udp://p4p.arenabg.com:1337/announce'
p98
sS'fail_limit'
p99
I0
sg39
NsS'complete_sent'
p100
I00
sS'source'
p101
I4
sS'start_sent'
p102
I00
sS'tier'
p103
I0
sS'updating'
p104
I00
sa(dp105
S'send_stats'
p106
I01
sS'fails'
p107
I0
sS'verified'
p108
I00
sg35
NsS'url'
p109
S'udp://tracker.internetwarriors.net:1337/announce'
p110
sS'fail_limit'
p111
I0
sg39
NsS'complete_sent'
p112
I00
sS'source'
p113
I4
sS'start_sent'
p114
I00
sS'tier'
p115
I0
sS'updating'
p116
I00
sa(dp117
S'send_stats'
p118
I01
sS'fails'
p119
I0
sS'verified'
p120
I00
sg35
NsS'url'
p121
S'udp://tracker.opentrackr.org:1337/announce'
p122
sS'fail_limit'
p123
I0
sg39
NsS'complete_sent'
p124
I00
sS'source'
p125
I4
sS'start_sent'
p126
I00
sS'tier'
p127
I0
sS'updating'
p128
I00
sa(dp129
S'send_stats'
p130
I01
sS'fails'
p131
I0
sS'verified'
p132
I00
sg35
NsS'url'
p133
S'http://tracker.openbittorrent.com:80/announce'
p134
sS'fail_limit'
p135
I0
sg39
NsS'complete_sent'
p136
I00
sS'source'
p137
I4
sS'start_sent'
p138
I00
sS'tier'
p139
I0
sS'updating'
p140
I00
sa(dp141
S'send_stats'
p142
I01
sS'fails'
p143
I0
sS'verified'
p144
I00
sg35
NsS'url'
p145
S'udp://opentracker.i2p.rocks:6969/announce'
p146
sS'fail_limit'
p147
I0
sg39
NsS'complete_sent'
p148
I00
sS'source'
p149
I4
sS'start_sent'
p150
I00
sS'tier'
p151
I0
sS'updating'
p152
I00
sa(dp153
S'send_stats'
p154
I01
sS'fails'
p155
I0
sS'verified'
p156
I00
sg35
NsS'url'
p157
S'udp://tracker.internetwarriors.net:1337/announce'
p158
sS'fail_limit'
p159
I0
sg39
NsS'complete_sent'
p160
I00
sS'source'
p161
I4
sS'start_sent'
p162
I00
sS'tier'
p163
I0
sS'updating'
p164
I00
sa(dp165
S'send_stats'
p166
I01
sS'fails'
p167
I0
sS'verified'
p168
I00
sg35
NsS'url'
p169
S'udp://tracker.leechers-paradise.org:6969/announce'
p170
sS'fail_limit'
p171
I0
sg39
NsS'complete_sent'
p172
I00
sS'source'
p173
I4
sS'start_sent'
p174
I00
sS'tier'
p175
I0
sS'updating'
p176
I00
sa(dp177
S'send_stats'
p178
I01
sS'fails'
p179
I0
sS'verified'
p180
I00
sg35
NsS'url'
p181
S'udp://coppersurfer.tk:6969/announce'
p182
sS'fail_limit'
p183
I0
sg39
NsS'complete_sent'
p184
I00
sS'source'
p185
I4
sS'start_sent'
p186
I00
sS'tier'
p187
I0
sS'updating'
p188
I00
sa(dp189
S'send_stats'
p190
I01
sS'fails'
p191
I0
sS'verified'
p192
I00
sg35
NsS'url'
p193
S'udp://tracker.zer0day.to:1337/announce'
p194
sS'fail_limit'
p195
I0
sg39
NsS'complete_sent'
p196
I00
sS'source'
p197
I4
sS'start_sent'
p198
I00
sS'tier'
p199
I0
sS'updating'
p200
I00
sasS'magnet'
p201
S'magnet:?xt=urn:btih:63AE7CB19AE1B04C903EDC35E41BFE9F64C00991&dn=The+Terror+%282018%29+Season+1+S01+%2B+Extras+%281080p+BluRay+x265+HEVC+10bit+AAC+5.1+RCVR%29+%5BQxR%5D&tr=udp%3A%2F%2Ftracker.coppersurfer.tk%3A6969%2Fannounce&tr=udp%3A%2F%2Ftracker.zer0day.to%3A1337%2Fannounce&tr=udp%3A%2F%2Ftracker.opentrackr.org%3A1337%2Fannounce&tr=udp%3A%2F%2Ftracker.torrent.eu.org%3A451%2Fannounce&tr=udp%3A%2F%2Ftracker.leechers-paradise.org%3A6969%2Fannounce&tr=udp%3A%2F%2Fp4p.arenabg.com%3A1337%2Fannounce&tr=udp%3A%2F%2Ftracker.internetwarriors.net%3A1337%2Fannounce&tr=udp%3A%2F%2Ftracker.opentrackr.org%3A1337%2Fannounce&tr=http%3A%2F%2Ftracker.openbittorrent.com%3A80%2Fannounce&tr=udp%3A%2F%2Fopentracker.i2p.rocks%3A6969%2Fannounce&tr=udp%3A%2F%2Ftracker.internetwarriors.net%3A1337%2Fannounce&tr=udp%3A%2F%2Ftracker.leechers-paradise.org%3A6969%2Fannounce&tr=udp%3A%2F%2Fcoppersurfer.tk%3A6969%2Fannounce&tr=udp%3A%2F%2Ftracker.zer0day.to%3A1337%2Fannounce'
p202
sS'remove_at_ratio'
p203
I00
sS'stop_ratio'
p204
F2
sS'is_finished'
p205
I01
sba(ideluge.core.torrentmanager
TorrentState
p206
(dp207
g7
F-1
sg8
S'/Users/bodo/Downloads'
p208
sg10
I00
sg11
I-1
sg12
I00
sg13
I-1
sg14
I00
sg15
I-1
sg16
(lp209
I1
aI1
aI1
aI1
aI1
aI1
asg18
S'5a0edbe2a9b281cbef7ae01ba0bb3806ab3a707f'
p210
sg20
F-1
sg21
S'/Users/bodo/Downloads'
p211
sg23
F1672299655.1045959
sg24
L0L
sg25
S'5a0edbe2a9b281cbef7ae01ba0bb3806ab3a707f'
p212
sg26
I01
sg27
I00
sg28
I00
sg29
(lp213
(dp214
S'send_stats'
p215
I01
sS'fails'
p216
I0
sS'verified'
p217
I00
sS'min_announce'
p218
NsS'url'
p219
S'udp://tracker.openbittorrent.com:6969/announce'
p220
sS'fail_limit'
p221
I0
sS'next_announce'
p222
NsS'complete_sent'
p223
I00
sS'source'
p224
I4
sS'start_sent'
p225
I00
sS'tier'
p226
I0
sS'updating'
p227
I00
sa(dp228
S'send_stats'
p229
I01
sS'fails'
p230
I0
sS'verified'
p231
I00
sg218
NsS'url'
p232
S'udp://p4p.arenabg.com:1337/announce'
p233
sS'fail_limit'
p234
I0
sg222
NsS'complete_sent'
p235
I00
sS'source'
p236
I4
sS'start_sent'
p237
I00
sS'tier'
p238
I0
sS'updating'
p239
I00
sa(dp240
S'send_stats'
p241
I01
sS'fails'
p242
I0
sS'verified'
p243
I00
sg218
NsS'url'
p244
S'udp://ipv4.tracker.harry.lu:80/announce'
p245
sS'fail_limit'
p246
I0
sg222
NsS'complete_sent'
p247
I00
sS'source'
p248
I4
sS'start_sent'
p249
I00
sS'tier'
p250
I0
sS'updating'
p251
I00
sa(dp252
S'send_stats'
p253
I01
sS'fails'
p254
I0
sS'verified'
p255
I00
sg218
NsS'url'
p256
S'udp://explodie.org:6969/announce'
p257
sS'fail_limit'
p258
I0
sg222
NsS'complete_sent'
p259
I00
sS'source'
p260
I4
sS'start_sent'
p261
I00
sS'tier'
p262
I0
sS'updating'
p263
I00
sa(dp264
S'send_stats'
p265
I01
sS'fails'
p266
I0
sS'verified'
p267
I00
sg218
NsS'url'
p268
S'udp://eddie4.nl:6969/announce'
p269
sS'fail_limit'
p270
I0
sg222
NsS'complete_sent'
p271
I00
sS'source'
p272
I4
sS'start_sent'
p273
I00
sS'tier'
p274
I0
sS'updating'
p275
I00
sa(dp276
S'send_stats'
p277
I01
sS'fails'
p278
I0
sS'verified'
p279
I00
sg218
NsS'url'
p280
S'udp://tracker.opentrackr.org:1337/announce'
p281
sS'fail_limit'
p282
I0
sg222
NsS'complete_sent'
p283
I00
sS'source'
p284
I4
sS'start_sent'
p285
I00
sS'tier'
p286
I0
sS'updating'
p287
I00
sa(dp288
S'send_stats'
p289
I01
sS'fails'
p290
I0
sS'verified'
p291
I00
sg218
NsS'url'
p292
S'udp://tracker.torrent.eu.org:451/announce'
p293
sS'fail_limit'
p294
I0
sg222
NsS'complete_sent'
p295
I00
sS'source'
p296
I4
sS'start_sent'
p297
I00
sS'tier'
p298
I0
sS'updating'
p299
I00
sa(dp300
S'send_stats'
p301
I01
sS'fails'
p302
I0
sS'verified'
p303
I00
sg218
NsS'url'
p304
S'udp://tracker.tiny-vps.com:6969/announce'
p305
sS'fail_limit'
p306
I0
sg222
NsS'complete_sent'
p307
I00
sS'source'
p308
I4
sS'start_sent'
p309
I00
sS'tier'
p310
I0
sS'updating'
p311
I00
sa(dp312
S'send_stats'
p313
I01
sS'fails'
p314
I0
sS'verified'
p315
I00
sg218
NsS'url'
p316
S'udp://open.stealth.si:80/announce'
p317
sS'fail_limit'
p318
I0
sg222
NsS'complete_sent'
p319
I00
sS'source'
p320
I4
sS'start_sent'
p321
I00
sS'tier'
p322
I0
sS'updating'
p323
I00
sa(dp324
S'send_stats'
p325
I01
sS'fails'
p326
I0
sS'verified'
p327
I00
sg218
NsS'url'
p328
S'udp://tracker.moeking.me:6969/announce'
p329
sS'fail_limit'
p330
I0
sg222
NsS'complete_sent'
p331
I00
sS'source'
p332
I4
sS'start_sent'
p333
I00
sS'tier'
p334
I0
sS'updating'
p335
I00
sa(dp336
S'send_stats'
p337
I01
sS'fails'
p338
I0
sS'verified'
p339
I00
sg218
NsS'url'
p340
S'udp://tracker.dler.org:6969/announce'
p341
sS'fail_limit'
p342
I0
sg222
NsS'complete_sent'
p343
I00
sS'source'
p344
I4
sS'start_sent'
p345
I00
sS'tier'
p346
I0
sS'updating'
p347
I00
sa(dp348
S'send_stats'
p349
I01
sS'fails'
p350
I0
sS'verified'
p351
I00
sg218
NsS'url'
p352
S'udp://tracker.opentrackr.org:1337/announce'
p353
sS'fail_limit'
p354
I0
sg222
NsS'complete_sent'
p355
I00
sS'source'
p356
I4
sS'start_sent'
p357
I00
sS'tier'
p358
I0
sS'updating'
p359
I00
sa(dp360
S'send_stats'
p361
I01
sS'fails'
p362
I0
sS'verified'
p363
I00
sg218
NsS'url'
p364
S'http://tracker.openbittorrent.com:80/announce'
p365
sS'fail_limit'
p366
I0
sg222
NsS'complete_sent'
p367
I00
sS'source'
p368
I4
sS'start_sent'
p369
I00
sS'tier'
p370
I0
sS'updating'
p371
I00
sa(dp372
S'send_stats'
p373
I01
sS'fails'
p374
I0
sS'verified'
p375
I00
sg218
NsS'url'
p376
S'udp://opentracker.i2p.rocks:6969/announce'
p377
sS'fail_limit'
p378
I0
sg222
NsS'complete_sent'
p379
I00
sS'source'
p380
I4
sS'start_sent'
p381
I00
sS'tier'
p382
I0
sS'updating'
p383
I00
sa(dp384
S'send_stats'
p385
I01
sS'fails'
p386
I0
sS'verified'
p387
I00
sg218
NsS'url'
p388
S'udp://tracker.internetwarriors.net:1337/announce'
p389
sS'fail_limit'
p390
I0
sg222
NsS'complete_sent'
p391
I00
sS'source'
p392
I4
sS'start_sent'
p393
I00
sS'tier'
p394
I0
sS'updating'
p395
I00
sa(dp396
S'send_stats'
p397
I01
sS'fails'
p398
I0
sS'verified'
p399
I00
sg218
NsS'url'
p400
S'udp://tracker.leechers-paradise.org:6969/announce'
p401
sS'fail_limit'
p402
I0
sg222
NsS'complete_sent'
p403
I00
sS'source'
p404
I4
sS'start_sent'
p405
I00
sS'tier'
p406
I0
sS'updating'
p407
I00
sa(dp408
S'send_stats'
p409
I01
sS'fails'
p410
I0
sS'verified'
p411
I00
sg218
NsS'url'
p412
S'udp://coppersurfer.tk:6969/announce'
p413
sS'fail_limit'
p414
I0
sg222
NsS'complete_sent'
p415
I00
sS'source'
p416
I4
sS'start_sent'
p417
I00
sS'tier'
p418
I0
sS'updating'
p419
I00
sa(dp420
S'send_stats'
p421
I01
sS'fails'
p422
I0
sS'verified'
p423
I00
sg218
NsS'url'
p424
S'udp://tracker.zer0day.to:1337/announce'
p425
sS'fail_limit'
p426
I0
sg222
NsS'complete_sent'
p427
I00
sS'source'
p428
I4
sS'start_sent'
p429
I00
sS'tier'
p430
I0
sS'updating'
p431
I00
sasg201
Nsg203
I00
sg204
F2
sg205
I01
sba(ideluge.core.torrentmanager
TorrentState
p432
(dp433
g7
F-1
sg8
S'/Users/bodo/Downloads'
p434
sg10
I00
sg11
I-1
sg12
I00
sg13
I-1
sg14
I00
sg15
I-1
sg16
(lp435
I1
aI1
aI1
aI1
aI1
aI1
aI1
aI1
aI1
aI1
aI1
aI1
asg18
S'd7384fe16a5ecc18b41450e27537db987ab1231d'
p436
sg20
F-1
sg21
S'/Users/bodo/Downloads'
p437
sg23
F1672267116.1491539
sg24
L2662747372L
sg25
S'd7384fe16a5ecc18b41450e27537db987ab1231d'
p438
sg26
I01
sg27
I00
sg28
I00
sg29
(lp439
(dp440
S'send_stats'
p441
I01
sS'fails'
p442
I0
sS'verified'
p443
I00
sS'min_announce'
p444
NsS'url'
p445
S'http://nyaa.tracker.wf:7777/announce'
p446
sS'fail_limit'
p447
I0
sS'next_announce'
p448
NsS'complete_sent'
p449
I00
sS'source'
p450
I4
sS'start_sent'
p451
I00
sS'tier'
p452
I0
sS'updating'
p453
I00
sa(dp454
S'send_stats'
p455
I01
sS'fails'
p456
I0
sS'verified'
p457
I00
sg444
NsS'url'
p458
S'udp://open.stealth.si:80/announce'
p459
sS'fail_limit'
p460
I0
sg448
NsS'complete_sent'
p461
I00
sS'source'
p462
I4
sS'start_sent'
p463
I00
sS'tier'
p464
I0
sS'updating'
p465
I00
sa(dp466
S'send_stats'
p467
I01
sS'fails'
p468
I0
sS'verified'
p469
I00
sg444
NsS'url'
p470
S'udp://tracker.opentrackr.org:1337/announce'
p471
sS'fail_limit'
p472
I0
sg448
NsS'complete_sent'
p473
I00
sS'source'
p474
I4
sS'start_sent'
p475
I00
sS'tier'
p476
I0
sS'updating'
p477
I00
sa(dp478
S'send_stats'
p479
I01
sS'fails'
p480
I0
sS'verified'
p481
I00
sg444
NsS'url'
p482
S'udp://exodus.desync.com:6969/announce'
p483
sS'fail_limit'
p484
I0
sg448
NsS'complete_sent'
p485
I00
sS'source'
p486
I4
sS'start_sent'
p487
I00
sS'tier'
p488
I0
sS'updating'
p489
I00
sa(dp490
S'send_stats'
p491
I01
sS'fails'
p492
I0
sS'verified'
p493
I00
sg444
NsS'url'
p494
S'udp://tracker.torrent.eu.org:451/announce'
p495
sS'fail_limit'
p496
I0
sg448
NsS'complete_sent'
p497
I00
sS'source'
p498
I4
sS'start_sent'
p499
I00
sS'tier'
p500
I0
sS'updating'
p501
I00
sasg201
Nsg203
I00
sg204
F2
sg205
I01
sbasb.